target datalayout = "e-m:e-p270:32:32-p271:32:32-p272:64:64-i64:64-i128:128-f80:128-n8:16:32:64-S128"
target triple = "x86_64-pc-linux-gnu"

%struct.Agdisc_s = type { ptr, ptr }

@gprDisc = internal global %struct.Agdisc_s { ptr @AgIdDisc, ptr @gprIoDisc }, align 8
@.str.3 = private unnamed_addr constant [8 x i8] c"userval\00", align 1

; Function Attrs: nounwind uwtable
define ptr @readG(ptr noundef %0) #0 {
  %2 = alloca ptr, align 8
  %3 = alloca ptr, align 8
  store ptr %0, ptr %2, align 8, !tbaa !76
  call void @llvm.lifetime.start.p0(i64 8, ptr %3) #16
  %4 = load ptr, ptr %2, align 8, !tbaa !76
  %5 = call ptr @agread(ptr noundef %4, ptr noundef @gprDisc)
  store ptr %5, ptr %3, align 8, !tbaa !92
  %6 = load ptr, ptr %3, align 8, !tbaa !92
  %7 = icmp ne ptr %6, null
  br i1 %7, label %8, label %12

8:                                                ; preds = %1
  %9 = load ptr, ptr %3, align 8, !tbaa !92
  call void @aginit(ptr noundef %9, i32 noundef 0, ptr noundef @.str.3, i32 noundef 24, i32 noundef 0)
  %10 = load ptr, ptr %3, align 8, !tbaa !92
  call void @aginit(ptr noundef %10, i32 noundef 1, ptr noundef @.str.3, i32 noundef 32, i32 noundef 0)
  %11 = load ptr, ptr %3, align 8, !tbaa !92
  call void @aginit(ptr noundef %11, i32 noundef 2, ptr noundef @.str.3, i32 noundef 16, i32 noundef 0)
  br label %12

12:                                               ; preds = %8, %1
  %13 = load ptr, ptr %3, align 8, !tbaa !92
  call void @llvm.lifetime.end.p0(i64 8, ptr %3) #16
  ret ptr %13
}