; Function Attrs: nounwind uwtable
define ptr @readG(ptr noundef %0) local_unnamed_addr #0 {
  %2 = tail call ptr @agread(ptr noundef %0, ptr noundef nonnull @gprDisc) #25
  %.not = icmp eq ptr %2, null
  br i1 %.not, label %4, label %3

3:                                                ; preds = %1
  tail call void @aginit(ptr noundef nonnull %2, i32 noundef 0, ptr noundef nonnull @.str.3, i32 noundef 24, i32 noundef 0) #25
  tail call void @aginit(ptr noundef nonnull %2, i32 noundef 1, ptr noundef nonnull @.str.3, i32 noundef 32, i32 noundef 0) #25
  tail call void @aginit(ptr noundef nonnull %2, i32 noundef 2, ptr noundef nonnull @.str.3, i32 noundef 16, i32 noundef 0) #25
  br label %4

4:                                                ; preds = %3, %1
  ret ptr %2
}